; Function Attrs: mustprogress uwtable
define hidden void @_ZN7datalog4rule10deallocateER11ast_manager(ptr noundef nonnull align 8 dereferenceable(80) %this, ptr noundef nonnull align 8 dereferenceable(976) %m) local_unnamed_addr #3 align 2 {
entry:
  %m_head = getelementptr inbounds i8, ptr %this, i64 40
  %0 = load ptr, ptr %m_head, align 8
  %tobool.not.i = icmp eq ptr %0, null
  br i1 %tobool.not.i, label %_ZN11ast_manager7dec_refEP3ast.exit, label %if.then.i

if.then.i:                                        ; preds = %entry
  %m_ref_count.i.i = getelementptr inbounds i8, ptr %0, i64 8
  %1 = load i32, ptr %m_ref_count.i.i, align 4
  %dec.i.i = add i32 %1, -1
  store i32 %dec.i.i, ptr %m_ref_count.i.i, align 4
  %cmp.i = icmp eq i32 %dec.i.i, 0
  br i1 %cmp.i, label %if.then2.i, label %_ZN11ast_manager7dec_refEP3ast.exit

if.then2.i:                                       ; preds = %if.then.i
  tail call void @_ZN11ast_manager11delete_nodeEP3ast(ptr noundef nonnull align 8 dereferenceable(976) %m, ptr noundef nonnull %0)
  br label %_ZN11ast_manager7dec_refEP3ast.exit

_ZN11ast_manager7dec_refEP3ast.exit:              ; preds = %entry, %if.then.i, %if.then2.i
  %m_tail_size.i = getelementptr inbounds i8, ptr %this, i64 56
  %2 = load i32, ptr %m_tail_size.i, align 8
  %cmp21.not = icmp eq i32 %2, 0
  br i1 %cmp21.not, label %for.end, label %for.body.lr.ph

for.body.lr.ph:                                   ; preds = %_ZN11ast_manager7dec_refEP3ast.exit
  %m_tail.i = getelementptr inbounds i8, ptr %this, i64 80
  %wide.trip.count = zext i32 %2 to i64
  br label %for.body

for.body:                                         ; preds = %for.body.lr.ph, %_ZN11ast_manager7dec_refEP3ast.exit13
  %indvars.iv = phi i64 [ 0, %for.body.lr.ph ], [ %indvars.iv.next, %_ZN11ast_manager7dec_refEP3ast.exit13 ]
  %arrayidx.i = getelementptr inbounds [0 x ptr], ptr %m_tail.i, i64 0, i64 %indvars.iv
  %3 = load ptr, ptr %arrayidx.i, align 8
  %4 = ptrtoint ptr %3 to i64
  %and.i = and i64 %4, -8
  %5 = inttoptr i64 %and.i to ptr
  %tobool.not.i7 = icmp eq i64 %and.i, 0
  br i1 %tobool.not.i7, label %_ZN11ast_manager7dec_refEP3ast.exit13, label %if.then.i8

if.then.i8:                                       ; preds = %for.body
  %m_ref_count.i.i9 = getelementptr inbounds i8, ptr %5, i64 8
  %6 = load i32, ptr %m_ref_count.i.i9, align 8
  %dec.i.i10 = add i32 %6, -1
  store i32 %dec.i.i10, ptr %m_ref_count.i.i9, align 8
  %cmp.i11 = icmp eq i32 %dec.i.i10, 0
  br i1 %cmp.i11, label %if.then2.i12, label %_ZN11ast_manager7dec_refEP3ast.exit13

if.then2.i12:                                     ; preds = %if.then.i8
  tail call void @_ZN11ast_manager11delete_nodeEP3ast(ptr noundef nonnull align 8 dereferenceable(976) %m, ptr noundef nonnull %5)
  br label %_ZN11ast_manager7dec_refEP3ast.exit13

_ZN11ast_manager7dec_refEP3ast.exit13:            ; preds = %for.body, %if.then.i8, %if.then2.i12
  %indvars.iv.next = add nuw nsw i64 %indvars.iv, 1
  %exitcond.not = icmp eq i64 %indvars.iv.next, %wide.trip.count
  br i1 %exitcond.not, label %for.end, label %for.body, !llvm.loop !7

for.end:                                          ; preds = %_ZN11ast_manager7dec_refEP3ast.exit13, %_ZN11ast_manager7dec_refEP3ast.exit
  %m_proof = getelementptr inbounds i8, ptr %this, i64 48
  %7 = load ptr, ptr %m_proof, align 8
  %tobool.not = icmp eq ptr %7, null
  br i1 %tobool.not, label %if.end, label %if.then.i15

if.then.i15:                                      ; preds = %for.end
  %m_ref_count.i.i16 = getelementptr inbounds i8, ptr %7, i64 8
  %8 = load i32, ptr %m_ref_count.i.i16, align 4
  %dec.i.i17 = add i32 %8, -1
  store i32 %dec.i.i17, ptr %m_ref_count.i.i16, align 4
  %cmp.i18 = icmp eq i32 %dec.i.i17, 0
  br i1 %cmp.i18, label %if.then2.i19, label %if.end

if.then2.i19:                                     ; preds = %if.then.i15
  tail call void @_ZN11ast_manager11delete_nodeEP3ast(ptr noundef nonnull align 8 dereferenceable(976) %m, ptr noundef nonnull %7)
  br label %if.end

if.end:                                           ; preds = %if.then2.i19, %if.then.i15, %for.end
  tail call void @_ZN7datalog16accounted_objectD2Ev(ptr noundef nonnull align 8 dereferenceable(33) %this) #20
  %m_alloc.i = getelementptr inbounds i8, ptr %m, i64 40
  %mul.i = shl i32 %2, 3
  %add.i = add i32 %mul.i, 80
  %conv = zext i32 %add.i to i64
  tail call void @_ZN22small_object_allocator10deallocateEmPv(ptr noundef nonnull align 8 dereferenceable(520) %m_alloc.i, i64 noundef %conv, ptr noundef nonnull %this)
  ret void
}